(dp1
S'files'
p2
(dp3
S'cirujanos_apps_web_managers'
p4
(dp5
S'index'
p6
(dp7
S'html_filename'
p8
S'cirujanos_apps_web_managers.html'
p9
sS'name'
p10
S'cirujanos.apps.web.managers'
p11
sS'nums'
p12
ccopy_reg
_reconstructor
p13
(ccoverage.results
Numbers
p14
c__builtin__
object
p15
NtRp16
(dp17
S'n_files'
p18
I1
sS'n_branches'
p19
I0
sS'n_statements'
p20
I20
sS'n_excluded'
p21
I0
sS'n_partial_branches'
p22
I0
sS'n_missing'
p23
I4
sS'n_missing_branches'
p24
I0
sbssS'hash'
p25
S'\xaf\x9b/\xd5\x1f\x18\xe4\xe4\xd2u=\xdc/\x7f|J'
p26
ssS'cirujanos_apps_home_models'
p27
(dp28
g6
(dp29
g8
S'cirujanos_apps_home_models.html'
p30
sg10
S'cirujanos.apps.home.models'
p31
sg12
g13
(g14
g15
NtRp32
(dp33
g18
I1
sg19
I0
sg20
I27
sg21
I0
sg22
I0
sg23
I1
sg24
I0
sbssg25
S'X \xd8\x81\xe9Z\xd0g\x91r\xb1\x87@\x05\xbaD'
p34
ssS'cirujanos_apps_home_migrations'
p35
(dp36
g6
(dp37
S'html_filename'
p38
S'cirujanos_apps_home_migrations.html'
p39
sS'name'
p40
S'cirujanos.apps.home.migrations'
p41
sS'nums'
p42
g13
(g14
g15
NtRp43
(dp44
g18
I1
sg19
I0
sg20
I0
sg21
I0
sg22
I0
sg23
I0
sg24
I0
sbssg25
S'\xca\xf5\x9f\x7f\x88\xdfa\x831|T\x1d\xbc}\xa5v'
p45
ssS'cirujanos_apps_home_urls'
p46
(dp47
g6
(dp48
g38
S'cirujanos_apps_home_urls.html'
p49
sg40
S'cirujanos.apps.home.urls'
p50
sg42
g13
(g14
g15
NtRp51
(dp52
g18
I1
sg19
I0
sg20
I3
sg21
I0
sg22
I0
sg23
I0
sg24
I0
sbssg25
S'\xdc}j4 \xa5\x1e\xfd\xa5\xddR%C\x7f9\x8a'
p53
ssS'cirujanos_apps_web_modules_system'
p54
(dp55
g6
(dp56
g38
S'cirujanos_apps_web_modules_system.html'
p57
sg40
S'cirujanos.apps.web.modules.system'
p58
sg42
g13
(g14
g15
NtRp59
(dp60
g18
I1
sg19
I0
sg20
I0
sg21
I0
sg22
I0
sg23
I0
sg24
I0
sbssg25
S'\xca\xf5\x9f\x7f\x88\xdfa\x831|T\x1d\xbc}\xa5v'
p61
ssS'cirujanos_apps_about_models'
p62
(dp63
g6
(dp64
g38
S'cirujanos_apps_about_models.html'
p65
sg40
S'cirujanos.apps.about.models'
p66
sg42
g13
(g14
g15
NtRp67
(dp68
g18
I1
sg19
I0
sg20
I54
sg21
I0
sg22
I0
sg23
I2
sg24
I0
sbssg25
S'\x9a\x94QJ\x80\xb6\x19\x83\x83\x1d\x8b\x96\x8c\x86h\xca'
p69
ssS'cirujanos_apps_web_urls'
p70
(dp71
g6
(dp72
g38
S'cirujanos_apps_web_urls.html'
p73
sg40
S'cirujanos.apps.web.urls'
p74
sg42
g13
(g14
g15
NtRp75
(dp76
g18
I1
sg19
I0
sg20
I3
sg21
I0
sg22
I0
sg23
I0
sg24
I0
sbssg25
S'f\xe2\xd4fA\xe2\xe5\xb3\xf7B\xb1KA\xe5Ya'
p77
ssS'cirujanos_apps_media_admin'
p78
(dp79
g6
(dp80
g38
S'cirujanos_apps_media_admin.html'
p81
sg40
S'cirujanos.apps.media.admin'
p82
sg42
g13
(g14
g15
NtRp83
(dp84
g18
I1
sg19
I0
sg20
I14
sg21
I0
sg22
I0
sg23
I0
sg24
I0
sbssg25
S'0|\x19\x9d\xd7\x0f\x1f\xbe\xebf\xd5AJ\x0f\xc1\x18'
p85
ssS'cirujanos_apps_media_templatetags'
p86
(dp87
g6
(dp88
g38
S'cirujanos_apps_media_templatetags.html'
p89
sg40
S'cirujanos.apps.media.templatetags'
p90
sg42
g13
(g14
g15
NtRp91
(dp92
g18
I1
sg19
I0
sg20
I0
sg21
I0
sg22
I0
sg23
I0
sg24
I0
sbssg25
S'\xca\xf5\x9f\x7f\x88\xdfa\x831|T\x1d\xbc}\xa5v'
p93
ssS'cirujanos_apps_web_admin'
p94
(dp95
g6
(dp96
g38
S'cirujanos_apps_web_admin.html'
p97
sg40
S'cirujanos.apps.web.admin'
p98
sg42
g13
(g14
g15
NtRp99
(dp100
g18
I1
sg19
I0
sg20
I26
sg21
I0
sg22
I0
sg23
I0
sg24
I0
sbssg25
S'o\xe3\x9a\x96\xb1\x8c\xfd\xf1\x8bqpe0\x9d\x8d\x85'
p101
ssS'cirujanos_apps_home_views'
p102
(dp103
g6
(dp104
g8
S'cirujanos_apps_home_views.html'
p105
sg10
S'cirujanos.apps.home.views'
p106
sg12
g13
(g14
g15
NtRp107
(dp108
g18
I1
sg19
I0
sg20
I8
sg21
I0
sg22
I0
sg23
I0
sg24
I0
sbssg25
S'\x03?o\xdc\xd9Q@\x04\xd2\xdd\xe5\x82!\xc7\xac\x00'
p109
ssS'cirujanos_apps_about_urls'
p110
(dp111
g6
(dp112
g38
S'cirujanos_apps_about_urls.html'
p113
sg40
S'cirujanos.apps.about.urls'
p114
sg42
g13
(g14
g15
NtRp115
(dp116
g18
I1
sg19
I0
sg20
I3
sg21
I0
sg22
I0
sg23
I0
sg24
I0
sbssg25
S'9\xcay\xfdK5A\x83\x0b}\xb3\x07\x80!\x82U'
p117
ssS'cirujanos_migrations'
p118
(dp119
g6
(dp120
g38
S'cirujanos_migrations.html'
p121
sg40
S'cirujanos.migrations'
p122
sg42
g13
(g14
g15
NtRp123
(dp124
g18
I1
sg19
I0
sg20
I0
sg21
I0
sg22
I0
sg23
I0
sg24
I0
sbssg25
S'\xca\xf5\x9f\x7f\x88\xdfa\x831|T\x1d\xbc}\xa5v'
p125
ssS'cirujanos_apps_web_views'
p126
(dp127
g6
(dp128
g8
S'cirujanos_apps_web_views.html'
p129
sg10
S'cirujanos.apps.web.views'
p130
sg12
g13
(g14
g15
NtRp131
(dp132
g18
I1
sg19
I0
sg20
I33
sg21
I0
sg22
I0
sg23
I11
sg24
I0
sbssg25
S'\xbc\x018b4\xb5\x86\xf5\xaa\xcf{\x17\x9f\x90Y\xcf'
p133
ssS'cirujanos_apps_media_urls'
p134
(dp135
g6
(dp136
g38
S'cirujanos_apps_media_urls.html'
p137
sg40
S'cirujanos.apps.media.urls'
p138
sg42
g13
(g14
g15
NtRp139
(dp140
g18
I1
sg19
I0
sg20
I12
sg21
I0
sg22
I0
sg23
I4
sg24
I0
sbssg25
S'\xa1\xb3\xc7"\x9e\xed$\xd9\xc4C\x11zSBX\xf2'
p141
ssS'cirujanos_apps_about_views'
p142
(dp143
g6
(dp144
g38
S'cirujanos_apps_about_views.html'
p145
sg40
S'cirujanos.apps.about.views'
p146
sg42
g13
(g14
g15
NtRp147
(dp148
g18
I1
sg19
I0
sg20
I40
sg21
I0
sg22
I0
sg23
I1
sg24
I0
sbssg25
S'\x8bf+#\xca\xf73\x96\xd0\xc0x*\xc2\x89\x9d\xe5'
p149
ssS'cirujanos_apps_home_admin'
p150
(dp151
g6
(dp152
g38
S'cirujanos_apps_home_admin.html'
p153
sg40
S'cirujanos.apps.home.admin'
p154
sg42
g13
(g14
g15
NtRp155
(dp156
g18
I1
sg19
I0
sg20
I11
sg21
I0
sg22
I0
sg23
I0
sg24
I0
sbssg25
S'\x8f\xf9\xf5!\xe01\xdd;[\xb32`\x85\xfd\x8b\x99'
p157
ssS'cirujanos_apps_web_modules'
p158
(dp159
g6
(dp160
g38
S'cirujanos_apps_web_modules.html'
p161
sg40
S'cirujanos.apps.web.modules'
p162
sg42
g13
(g14
g15
NtRp163
(dp164
g18
I1
sg19
I0
sg20
I0
sg21
I0
sg22
I0
sg23
I0
sg24
I0
sbssg25
S'\xca\xf5\x9f\x7f\x88\xdfa\x831|T\x1d\xbc}\xa5v'
p165
ssS'cirujanos_apps_media_extensions'
p166
(dp167
g6
(dp168
g38
S'cirujanos_apps_media_extensions.html'
p169
sg40
S'cirujanos.apps.media.extensions'
p170
sg42
g13
(g14
g15
NtRp171
(dp172
g18
I1
sg19
I0
sg20
I18
sg21
I0
sg22
I0
sg23
I5
sg24
I0
sbssg25
S'\x11\x91\xb3&\x1dS\x86E\xa6\x89eT\xbb\xf1X\xe8'
p173
ssS'cirujanos_mixins'
p174
(dp175
g6
(dp176
g38
S'cirujanos_mixins.html'
p177
sg40
S'cirujanos.mixins'
p178
sg42
g13
(g14
g15
NtRp179
(dp180
g18
I1
sg19
I0
sg20
I17
sg21
I0
sg22
I0
sg23
I0
sg24
I0
sbssg25
S'\xb9h\xdct\x8e\xda\x95\xa2Nc\x13\x08\x05\x16\x0b\x01'
p181
ssS'cirujanos_apps_media_views'
p182
(dp183
g6
(dp184
g8
S'cirujanos_apps_media_views.html'
p185
sg10
S'cirujanos.apps.media.views'
p186
sg12
g13
(g14
g15
NtRp187
(dp188
g18
I1
sg19
I0
sg20
I72
sg21
I0
sg22
I0
sg23
I14
sg24
I0
sbssg25
S'(\xedY5\xe0\xa1*3\xb8vm\xf0/\xad\x8aT'
p189
ssS'cirujanos_apps'
p190
(dp191
g6
(dp192
g38
S'cirujanos_apps.html'
p193
sg40
S'cirujanos.apps'
p194
sg42
g13
(g14
g15
NtRp195
(dp196
g18
I1
sg19
I0
sg20
I0
sg21
I0
sg22
I0
sg23
I0
sg24
I0
sbssg25
S'\xe5P\x11)^\xf4>1D.\x0e\x0b\xa1\xf8[+'
p197
ssS'cirujanos_urls'
p198
(dp199
g6
(dp200
g38
S'cirujanos_urls.html'
p201
sg40
S'cirujanos.urls'
p202
sg42
g13
(g14
g15
NtRp203
(dp204
g18
I1
sg19
I0
sg20
I9
sg21
I0
sg22
I0
sg23
I0
sg24
I0
sbssg25
S'\xc8}\x94Z\x1e\x90\xb1\x7f\x96\xa1\xd7\xb1o\x9d\xc3\x0b'
p205
ssS'cirujanos_views'
p206
(dp207
g6
(dp208
g8
S'cirujanos_views.html'
p209
sg10
S'cirujanos.views'
p210
sg12
g13
(g14
g15
NtRp211
(dp212
g18
I1
sg19
I0
sg20
I15
sg21
I0
sg22
I0
sg23
I2
sg24
I0
sbssg25
S"\xbc\r7\xbf\x84\xcb\x1b\xaa\x8b\xba\x8f'>\xde\xc0\x07"
p213
ssS'cirujanos_apps_web_templatetags'
p214
(dp215
g6
(dp216
g38
S'cirujanos_apps_web_templatetags.html'
p217
sg40
S'cirujanos.apps.web.templatetags'
p218
sg42
g13
(g14
g15
NtRp219
(dp220
g18
I1
sg19
I0
sg20
I0
sg21
I0
sg22
I0
sg23
I0
sg24
I0
sbssg25
S'\xca\xf5\x9f\x7f\x88\xdfa\x831|T\x1d\xbc}\xa5v'
p221
ssS'cirujanos_apps_about_forms'
p222
(dp223
g6
(dp224
g38
S'cirujanos_apps_about_forms.html'
p225
sg40
S'cirujanos.apps.about.forms'
p226
sg42
g13
(g14
g15
NtRp227
(dp228
g18
I1
sg19
I0
sg20
I10
sg21
I0
sg22
I0
sg23
I0
sg24
I0
sbssg25
S'f\xdb{w\xe0\x01\x82+\xb1\xb9\xed\x98\x11\xd2q\x0e'
p229
ssS'cirujanos_apps_media_migrations'
p230
(dp231
g6
(dp232
g38
S'cirujanos_apps_media_migrations.html'
p233
sg40
S'cirujanos.apps.media.migrations'
p234
sg42
g13
(g14
g15
NtRp235
(dp236
g18
I1
sg19
I0
sg20
I0
sg21
I0
sg22
I0
sg23
I0
sg24
I0
sbssg25
S'\xca\xf5\x9f\x7f\x88\xdfa\x831|T\x1d\xbc}\xa5v'
p237
ssS'cirujanos_apps_about_templatetags_about_extras'
p238
(dp239
g6
(dp240
g38
S'cirujanos_apps_about_templatetags_about_extras.html'
p241
sg40
S'cirujanos.apps.about.templatetags.about_extras'
p242
sg42
g13
(g14
g15
NtRp243
(dp244
g18
I1
sg19
I0
sg20
I15
sg21
I0
sg22
I0
sg23
I2
sg24
I0
sbssg25
S"\xcc\xdal4\xa7\xecL'\xcd\xd7\x11N\x8akeM"
p245
ssS'cirujanos_apps_web_templatetags_web_extras'
p246
(dp247
S'index'
p248
(dp249
g8
S'cirujanos_apps_web_templatetags_web_extras.html'
p250
sg10
S'cirujanos.apps.web.templatetags.web_extras'
p251
sg12
g13
(g14
g15
NtRp252
(dp253
g18
I1
sg19
I0
sg20
I6
sg21
I0
sg22
I0
sg23
I0
sg24
I0
sbssS'hash'
p254
S'+o\x12\xed\xc3\xdc\x9b\xc3u\x86\r\x00\xc3#\x0es'
p255
ssS'cirujanos_apps_about_migrations'
p256
(dp257
g6
(dp258
g38
S'cirujanos_apps_about_migrations.html'
p259
sg40
S'cirujanos.apps.about.migrations'
p260
sg42
g13
(g14
g15
NtRp261
(dp262
g18
I1
sg19
I0
sg20
I0
sg21
I0
sg22
I0
sg23
I0
sg24
I0
sbssg25
S'\xca\xf5\x9f\x7f\x88\xdfa\x831|T\x1d\xbc}\xa5v'
p263
ssS'cirujanos_apps_media'
p264
(dp265
g6
(dp266
g38
S'cirujanos_apps_media.html'
p267
sg40
S'cirujanos.apps.media'
p268
sg42
g13
(g14
g15
NtRp269
(dp270
g18
I1
sg19
I0
sg20
I0
sg21
I0
sg22
I0
sg23
I0
sg24
I0
sbssg25
S'\xe5P\x11)^\xf4>1D.\x0e\x0b\xa1\xf8[+'
p271
ssS'cirujanos_apps_web_models'
p272
(dp273
g6
(dp274
g8
S'cirujanos_apps_web_models.html'
p275
sg10
S'cirujanos.apps.web.models'
p276
sg12
g13
(g14
g15
NtRp277
(dp278
g18
I1
sg19
I0
sg20
I81
sg21
I0
sg22
I0
sg23
I8
sg24
I0
sbssg25
S'\xd5\xf8\xb4\r[\xaa\xb1\x0b\xf7\xc0\x12ZE\xbf\x0cM'
p279
ssS'cirujanos_apps_about'
p280
(dp281
g6
(dp282
g38
S'cirujanos_apps_about.html'
p283
sg40
S'cirujanos.apps.about'
p284
sg42
g13
(g14
g15
NtRp285
(dp286
g18
I1
sg19
I0
sg20
I0
sg21
I0
sg22
I0
sg23
I0
sg24
I0
sbssg25
S'\xe5P\x11)^\xf4>1D.\x0e\x0b\xa1\xf8[+'
p287
ssS'cirujanos_apps_web_migrations'
p288
(dp289
g6
(dp290
g38
S'cirujanos_apps_web_migrations.html'
p291
sg40
S'cirujanos.apps.web.migrations'
p292
sg42
g13
(g14
g15
NtRp293
(dp294
g18
I1
sg19
I0
sg20
I0
sg21
I0
sg22
I0
sg23
I0
sg24
I0
sbssg25
S'\xca\xf5\x9f\x7f\x88\xdfa\x831|T\x1d\xbc}\xa5v'
p295
ssS'cirujanos_apps_about_core'
p296
(dp297
g6
(dp298
g38
S'cirujanos_apps_about_core.html'
p299
sg40
S'cirujanos.apps.about.core'
p300
sg42
g13
(g14
g15
NtRp301
(dp302
g18
I1
sg19
I0
sg20
I23
sg21
I0
sg22
I0
sg23
I0
sg24
I0
sbssg25
S'\xfc\x84\xed\xa4\xe1sv\x90\xb1%g\xc4\x1c\x7f\xff\r'
p303
ssS'cirujanos'
p304
(dp305
g6
(dp306
g38
S'cirujanos.html'
p307
sg40
g304
sg42
g13
(g14
g15
NtRp308
(dp309
g18
I1
sg19
I0
sg20
I0
sg21
I0
sg22
I0
sg23
I0
sg24
I0
sbssg25
S'\xe5P\x11)^\xf4>1D.\x0e\x0b\xa1\xf8[+'
p310
ssS'cirujanos_apps_about_admin'
p311
(dp312
g6
(dp313
g38
S'cirujanos_apps_about_admin.html'
p314
sg40
S'cirujanos.apps.about.admin'
p315
sg42
g13
(g14
g15
NtRp316
(dp317
g18
I1
sg19
I0
sg20
I15
sg21
I0
sg22
I0
sg23
I0
sg24
I0
sbssg25
S"\x17\xc1B+\x0b\xc7\xc8\x7f'\xcd\x9f\xc7\x1d\xc2\xb1\xc7"
p318
ssS'cirujanos_apps_media_models'
p319
(dp320
g6
(dp321
g38
S'cirujanos_apps_media_models.html'
p322
sg40
S'cirujanos.apps.media.models'
p323
sg42
g13
(g14
g15
NtRp324
(dp325
g18
I1
sg19
I0
sg20
I56
sg21
I0
sg22
I0
sg23
I4
sg24
I0
sbssg25
S'\x97\x83\xbc\xde\x91+\xef\xb8\xad\x0e\xbdn\xb7\x00\xcf\x01'
p326
ssS'cirujanos_apps_web'
p327
(dp328
g6
(dp329
g38
S'cirujanos_apps_web.html'
p330
sg40
S'cirujanos.apps.web'
p331
sg42
g13
(g14
g15
NtRp332
(dp333
g18
I1
sg19
I0
sg20
I0
sg21
I0
sg22
I0
sg23
I0
sg24
I0
sbssg25
S'\xe5P\x11)^\xf4>1D.\x0e\x0b\xa1\xf8[+'
p334
ssS'cirujanos_apps_home'
p335
(dp336
g6
(dp337
g38
S'cirujanos_apps_home.html'
p338
sg40
S'cirujanos.apps.home'
p339
sg42
g13
(g14
g15
NtRp340
(dp341
g18
I1
sg19
I0
sg20
I0
sg21
I0
sg22
I0
sg23
I0
sg24
I0
sbssg25
S'\xe5P\x11)^\xf4>1D.\x0e\x0b\xa1\xf8[+'
p342
ssS'cirujanos_apps_about_templatetags'
p343
(dp344
g6
(dp345
g38
S'cirujanos_apps_about_templatetags.html'
p346
sg40
S'cirujanos.apps.about.templatetags'
p347
sg42
g13
(g14
g15
NtRp348
(dp349
g18
I1
sg19
I0
sg20
I0
sg21
I0
sg22
I0
sg23
I0
sg24
I0
sbssg25
S'\xca\xf5\x9f\x7f\x88\xdfa\x831|T\x1d\xbc}\xa5v'
p350
ssS'cirujanos_models'
p351
(dp352
g6
(dp353
g38
S'cirujanos_models.html'
p354
sg40
S'cirujanos.models'
p355
sg42
g13
(g14
g15
NtRp356
(dp357
g18
I1
sg19
I0
sg20
I10
sg21
I0
sg22
I0
sg23
I1
sg24
I0
sbssg25
S'&&A?Fe\xc8\xa5\x8a\xd5GV\xa5m_6'
p358
ssS'cirujanos_apps_media_templatetags_media_extras'
p359
(dp360
g248
(dp361
g8
S'cirujanos_apps_media_templatetags_media_extras.html'
p362
sg10
S'cirujanos.apps.media.templatetags.media_extras'
p363
sg12
g13
(g14
g15
NtRp364
(dp365
g18
I1
sg19
I0
sg20
I24
sg21
I0
sg22
I0
sg23
I6
sg24
I0
sbssg254
S'b\x1c\xffb3C_\xab\x1d\x8e\xb3Q\xf5r\x0e\xe4'
p366
sssS'version'
p367
S'3.7.1'
p368
sS'settings'
p369
S'\xa8\xe7=\xf5.|Q;\x9c\xda\xb8=\xdfd\xec\x99'
p370
sS'format'
p371
I1
s.